target datalayout = "e-m:e-p270:32:32-p271:32:32-p272:64:64-i64:64-i128:128-f80:128-n8:16:32:64-S128"
target triple = "x86_64-pc-linux-gnu"

%struct.expert_field = type { i32, i32 }

@hf_clip_mode = internal global i32 0, align 4
@hf_clip_status = internal global i32 0, align 4
@hf_at_number = internal global i32 0, align 4
@hf_at_type = internal global i32 0, align 4
@hf_at_subaddress = internal global i32 0, align 4
@hf_at_subaddress_type = internal global i32 0, align 4
@hf_at_alpha = internal global i32 0, align 4
@hf_at_cli_validity = internal global i32 0, align 4
@ei_at_type = internal global %struct.expert_field zeroinitializer, align 4

; Function Attrs: nounwind null_pointer_is_valid sspstrong uwtable
define internal zeroext i1 @check_clip(i32 noundef %0, i16 noundef zeroext %1) #10 {
  %3 = alloca i1, align 1
  %4 = alloca i32, align 4
  %5 = alloca i16, align 2
  store i32 %0, ptr %4, align 4
  store i16 %1, ptr %5, align 2
  %6 = load i32, ptr %4, align 4
  %7 = icmp eq i32 %6, 2
  br i1 %7, label %8, label %21

8:                                                ; preds = %2
  %9 = load i16, ptr %5, align 2
  %10 = zext i16 %9 to i32
  %11 = icmp eq i32 %10, 61
  br i1 %11, label %20, label %12

12:                                               ; preds = %8
  %13 = load i16, ptr %5, align 2
  %14 = zext i16 %13 to i32
  %15 = icmp eq i32 %14, 63
  br i1 %15, label %20, label %16

16:                                               ; preds = %12
  %17 = load i16, ptr %5, align 2
  %18 = zext i16 %17 to i32
  %19 = icmp eq i32 %18, 15679
  br i1 %19, label %20, label %21

20:                                               ; preds = %16, %12, %8
  store i1 true, ptr %3, align 1
  br label %30

21:                                               ; preds = %16, %2
  %22 = load i32, ptr %4, align 4
  %23 = icmp eq i32 %22, 1
  br i1 %23, label %24, label %29

24:                                               ; preds = %21
  %25 = load i16, ptr %5, align 2
  %26 = zext i16 %25 to i32
  %27 = icmp eq i32 %26, 58
  br i1 %27, label %28, label %29

28:                                               ; preds = %24
  store i1 true, ptr %3, align 1
  br label %30

29:                                               ; preds = %24, %21
  store i1 false, ptr %3, align 1
  br label %30

30:                                               ; preds = %29, %28, %20
  %31 = load i1, ptr %3, align 1
  ret i1 %31
}

; Function Attrs: null_pointer_is_valid sspstrong uwtable
define internal zeroext i1 @dissect_clip_parameter(ptr noundef %0, ptr noundef %1, ptr noundef %2, i32 noundef %3, i32 noundef %4, i16 noundef zeroext %5, ptr noundef %6, i32 noundef %7, i32 noundef %8, ptr noundef %9) #0 {
  %11 = alloca i1, align 1
  %12 = alloca ptr, align 8
  %13 = alloca ptr, align 8
  %14 = alloca ptr, align 8
  %15 = alloca i32, align 4
  %16 = alloca i32, align 4
  %17 = alloca i16, align 2
  %18 = alloca ptr, align 8
  %19 = alloca i32, align 4
  %20 = alloca i32, align 4
  %21 = alloca ptr, align 8
  %22 = alloca ptr, align 8
  %23 = alloca i32, align 4
  %24 = alloca i32, align 4
  store ptr %0, ptr %12, align 8
  store ptr %1, ptr %13, align 8
  store ptr %2, ptr %14, align 8
  store i32 %3, ptr %15, align 4
  store i32 %4, ptr %16, align 4
  store i16 %5, ptr %17, align 2
  store ptr %6, ptr %18, align 8
  store i32 %7, ptr %19, align 4
  store i32 %8, ptr %20, align 4
  store ptr %9, ptr %21, align 8
  call void @llvm.lifetime.start.p0(i64 8, ptr %22) #11
  call void @llvm.lifetime.start.p0(i64 4, ptr %23) #11
  %25 = load i32, ptr %16, align 4
  %26 = load i16, ptr %17, align 2
  %27 = call zeroext i1 @check_clip(i32 noundef %25, i16 noundef zeroext %26)
  br i1 %27, label %29, label %28

28:                                               ; preds = %10
  store i1 false, ptr %11, align 1
  store i32 1, ptr %24, align 4
  br label %148

29:                                               ; preds = %10
  %30 = load i32, ptr %16, align 4
  %31 = icmp eq i32 %30, 2
  br i1 %31, label %32, label %40

32:                                               ; preds = %29
  %33 = load i16, ptr %17, align 2
  %34 = zext i16 %33 to i32
  %35 = icmp eq i32 %34, 61
  br i1 %35, label %36, label %40

36:                                               ; preds = %32
  %37 = load i32, ptr %19, align 4
  %38 = icmp ugt i32 %37, 1
  br i1 %38, label %39, label %40

39:                                               ; preds = %36
  store i1 false, ptr %11, align 1
  store i32 1, ptr %24, align 4
  br label %148

40:                                               ; preds = %36, %32, %29
  %41 = load i32, ptr %16, align 4
  %42 = icmp eq i32 %41, 1
  br i1 %42, label %43, label %47

43:                                               ; preds = %40
  %44 = load i32, ptr %19, align 4
  %45 = icmp ugt i32 %44, 5
  br i1 %45, label %46, label %47

46:                                               ; preds = %43
  store i1 false, ptr %11, align 1
  store i32 1, ptr %24, align 4
  br label %148

47:                                               ; preds = %43, %40
  br label %48

48:                                               ; preds = %47
  %49 = load i32, ptr %16, align 4
  %50 = icmp eq i32 %49, 2
  br i1 %50, label %51, label %80

51:                                               ; preds = %48
  %52 = load i16, ptr %17, align 2
  %53 = zext i16 %52 to i32
  %54 = icmp eq i32 %53, 61
  br i1 %54, label %55, label %80

55:                                               ; preds = %51
  %56 = load i32, ptr %19, align 4
  switch i32 %56, label %79 [
    i32 0, label %57
    i32 1, label %68
  ]

57:                                               ; preds = %55
  %58 = load ptr, ptr %18, align 8
  %59 = load i32, ptr %20, align 4
  %60 = call i32 @get_uint_parameter(ptr noundef %58, i32 noundef %59)
  store i32 %60, ptr %23, align 4
  %61 = load ptr, ptr %14, align 8
  %62 = load i32, ptr @hf_clip_mode, align 4
  %63 = load ptr, ptr %12, align 8
  %64 = load i32, ptr %15, align 4
  %65 = load i32, ptr %20, align 4
  %66 = load i32, ptr %23, align 4
  %67 = call ptr @proto_tree_add_uint(ptr noundef %61, i32 noundef %62, ptr noundef %63, i32 noundef %64, i32 noundef %65, i32 noundef %66)
  br label %79

68:                                               ; preds = %55
  %69 = load ptr, ptr %18, align 8
  %70 = load i32, ptr %20, align 4
  %71 = call i32 @get_uint_parameter(ptr noundef %69, i32 noundef %70)
  store i32 %71, ptr %23, align 4
  %72 = load ptr, ptr %14, align 8
  %73 = load i32, ptr @hf_clip_status, align 4
  %74 = load ptr, ptr %12, align 8
  %75 = load i32, ptr %15, align 4
  %76 = load i32, ptr %20, align 4
  %77 = load i32, ptr %23, align 4
  %78 = call ptr @proto_tree_add_uint(ptr noundef %72, i32 noundef %73, ptr noundef %74, i32 noundef %75, i32 noundef %76, i32 noundef %77)
  br label %79

79:                                               ; preds = %55, %68, %57
  br label %147

80:                                               ; preds = %51, %48
  %81 = load i32, ptr %19, align 4
  switch i32 %81, label %146 [
    i32 0, label %82
    i32 1, label %89
    i32 2, label %110
    i32 3, label %117
    i32 4, label %128
    i32 5, label %135
  ]

82:                                               ; preds = %80
  %83 = load ptr, ptr %14, align 8
  %84 = load i32, ptr @hf_at_number, align 4
  %85 = load ptr, ptr %12, align 8
  %86 = load i32, ptr %15, align 4
  %87 = load i32, ptr %20, align 4
  %88 = call ptr @proto_tree_add_item(ptr noundef %83, i32 noundef %84, ptr noundef %85, i32 noundef %86, i32 noundef %87, i32 noundef 0)
  br label %146

89:                                               ; preds = %80
  %90 = load ptr, ptr %18, align 8
  %91 = load i32, ptr %20, align 4
  %92 = call i32 @get_uint_parameter(ptr noundef %90, i32 noundef %91)
  store i32 %92, ptr %23, align 4
  %93 = load ptr, ptr %14, align 8
  %94 = load i32, ptr @hf_at_type, align 4
  %95 = load ptr, ptr %12, align 8
  %96 = load i32, ptr %15, align 4
  %97 = load i32, ptr %20, align 4
  %98 = load i32, ptr %23, align 4
  %99 = call ptr @proto_tree_add_uint(ptr noundef %93, i32 noundef %94, ptr noundef %95, i32 noundef %96, i32 noundef %97, i32 noundef %98)
  store ptr %99, ptr %22, align 8
  %100 = load i32, ptr %23, align 4
  %101 = icmp ult i32 %100, 128
  br i1 %101, label %105, label %102

102:                                              ; preds = %89
  %103 = load i32, ptr %23, align 4
  %104 = icmp ugt i32 %103, 175
  br i1 %104, label %105, label %109

105:                                              ; preds = %102, %89
  %106 = load ptr, ptr %13, align 8
  %107 = load ptr, ptr %22, align 8
  %108 = call ptr @expert_add_info(ptr noundef %106, ptr noundef %107, ptr noundef @ei_at_type)
  br label %109

109:                                              ; preds = %105, %102
  br label %146

110:                                              ; preds = %80
  %111 = load ptr, ptr %14, align 8
  %112 = load i32, ptr @hf_at_subaddress, align 4
  %113 = load ptr, ptr %12, align 8
  %114 = load i32, ptr %15, align 4
  %115 = load i32, ptr %20, align 4
  %116 = call ptr @proto_tree_add_item(ptr noundef %111, i32 noundef %112, ptr noundef %113, i32 noundef %114, i32 noundef %115, i32 noundef 0)
  br label %146

117:                                              ; preds = %80
  %118 = load ptr, ptr %18, align 8
  %119 = load i32, ptr %20, align 4
  %120 = call i32 @get_uint_parameter(ptr noundef %118, i32 noundef %119)
  store i32 %120, ptr %23, align 4
  %121 = load ptr, ptr %14, align 8
  %122 = load i32, ptr @hf_at_subaddress_type, align 4
  %123 = load ptr, ptr %12, align 8
  %124 = load i32, ptr %15, align 4
  %125 = load i32, ptr %20, align 4
  %126 = load i32, ptr %23, align 4
  %127 = call ptr @proto_tree_add_uint(ptr noundef %121, i32 noundef %122, ptr noundef %123, i32 noundef %124, i32 noundef %125, i32 noundef %126)
  br label %146

128:                                              ; preds = %80
  %129 = load ptr, ptr %14, align 8
  %130 = load i32, ptr @hf_at_alpha, align 4
  %131 = load ptr, ptr %12, align 8
  %132 = load i32, ptr %15, align 4
  %133 = load i32, ptr %20, align 4
  %134 = call ptr @proto_tree_add_item(ptr noundef %129, i32 noundef %130, ptr noundef %131, i32 noundef %132, i32 noundef %133, i32 noundef 0)
  br label %146

135:                                              ; preds = %80
  %136 = load ptr, ptr %18, align 8
  %137 = load i32, ptr %20, align 4
  %138 = call i32 @get_uint_parameter(ptr noundef %136, i32 noundef %137)
  store i32 %138, ptr %23, align 4
  %139 = load ptr, ptr %14, align 8
  %140 = load i32, ptr @hf_at_cli_validity, align 4
  %141 = load ptr, ptr %12, align 8
  %142 = load i32, ptr %15, align 4
  %143 = load i32, ptr %20, align 4
  %144 = load i32, ptr %23, align 4
  %145 = call ptr @proto_tree_add_uint(ptr noundef %139, i32 noundef %140, ptr noundef %141, i32 noundef %142, i32 noundef %143, i32 noundef %144)
  br label %146

146:                                              ; preds = %80, %135, %128, %117, %110, %109, %82
  br label %147

147:                                              ; preds = %146, %79
  store i1 true, ptr %11, align 1
  store i32 1, ptr %24, align 4
  br label %148

148:                                              ; preds = %147, %46, %39, %28
  call void @llvm.lifetime.end.p0(i64 4, ptr %23) #11
  call void @llvm.lifetime.end.p0(i64 8, ptr %22) #11
  %149 = load i1, ptr %11, align 1
  ret i1 %149
}