; Function Attrs: null_pointer_is_valid sspstrong uwtable
define internal noundef zeroext i1 @dissect_clip_parameter(ptr noundef %0, ptr noundef %1, ptr noundef %2, i32 noundef %3, i32 noundef %4, i16 noundef zeroext %5, ptr noundef readonly captures(none) %6, i32 noundef %7, i32 noundef %8, ptr readnone captures(none) %9) #0 {
  %11 = icmp eq i32 %4, 2
  br i1 %11, label %12, label %check_clip.exit

12:                                               ; preds = %10
  switch i16 %5, label %check_clip.exit.thread74 [
    i16 15679, label %16
    i16 63, label %16
    i16 61, label %16
  ]

check_clip.exit:                                  ; preds = %10
  %13 = icmp ne i32 %4, 1
  %14 = icmp ne i16 %5, 58
  %or.cond8.i.not87 = or i1 %13, %14
  %15 = icmp ugt i32 %7, 5
  %or.cond85 = or i1 %or.cond8.i.not87, %15
  br i1 %or.cond85, label %check_clip.exit.thread74, label %.thread83

16:                                               ; preds = %12, %12, %12
  %17 = icmp eq i16 %5, 61
  %18 = icmp ugt i32 %7, 1
  %or.cond4 = and i1 %17, %18
  br i1 %or.cond4, label %check_clip.exit.thread74, label %19

19:                                               ; preds = %16
  br i1 %17, label %20, label %.thread83

20:                                               ; preds = %19
  switch i32 %7, label %check_clip.exit.thread74 [
    i32 0, label %21
    i32 1, label %34
  ]

21:                                               ; preds = %20
  %22 = tail call ptr @wmem_packet_scope()
  %23 = add i32 %8, 1
  %24 = sext i32 %23 to i64
  %25 = tail call noalias ptr @wmem_alloc(ptr noundef %22, i64 noundef %24) #11
  %26 = sext i32 %8 to i64
  %27 = icmp ne i32 %23, -1
  tail call void @llvm.assume(i1 %27)
  %28 = tail call ptr @__memcpy_chk(ptr noundef %25, ptr noundef readonly %6, i64 noundef range(i64 -2147483648, 4294967296) %26, i64 noundef %24) #10, !alias.scope !157
  %29 = getelementptr i8, ptr %25, i64 %26
  store i8 0, ptr %29, align 1
  %30 = tail call i64 @g_ascii_strtoull(ptr noundef %25, ptr noundef null, i32 noundef 10)
  %31 = trunc i64 %30 to i32
  %32 = load i32, ptr @hf_clip_mode, align 4
  %33 = tail call ptr @proto_tree_add_uint(ptr noundef %2, i32 noundef %32, ptr noundef %0, i32 noundef %3, i32 noundef %8, i32 noundef %31)
  br label %check_clip.exit.thread74

34:                                               ; preds = %20
  %35 = tail call ptr @wmem_packet_scope()
  %36 = add i32 %8, 1
  %37 = sext i32 %36 to i64
  %38 = tail call noalias ptr @wmem_alloc(ptr noundef %35, i64 noundef %37) #11
  %39 = sext i32 %8 to i64
  %40 = icmp ne i32 %36, -1
  tail call void @llvm.assume(i1 %40)
  %41 = tail call ptr @__memcpy_chk(ptr noundef %38, ptr noundef readonly %6, i64 noundef range(i64 -2147483648, 4294967296) %39, i64 noundef %37) #10, !alias.scope !161
  %42 = getelementptr i8, ptr %38, i64 %39
  store i8 0, ptr %42, align 1
  %43 = tail call i64 @g_ascii_strtoull(ptr noundef %38, ptr noundef null, i32 noundef 10)
  %44 = trunc i64 %43 to i32
  %45 = load i32, ptr @hf_clip_status, align 4
  %46 = tail call ptr @proto_tree_add_uint(ptr noundef %2, i32 noundef %45, ptr noundef %0, i32 noundef %3, i32 noundef %8, i32 noundef %44)
  br label %check_clip.exit.thread74

.thread83:                                        ; preds = %check_clip.exit, %19
  switch i32 %7, label %check_clip.exit.thread74 [
    i32 0, label %47
    i32 1, label %50
    i32 2, label %57
    i32 3, label %60
    i32 4, label %64
    i32 5, label %67
  ]

47:                                               ; preds = %.thread83
  %48 = load i32, ptr @hf_at_number, align 4
  %49 = tail call ptr @proto_tree_add_item(ptr noundef %2, i32 noundef %48, ptr noundef %0, i32 noundef %3, i32 noundef %8, i32 noundef 0)
  br label %check_clip.exit.thread74

50:                                               ; preds = %.thread83
  %51 = tail call fastcc i32 @get_uint_parameter(ptr noundef %6, i32 noundef %8)
  %52 = load i32, ptr @hf_at_type, align 4
  %53 = tail call ptr @proto_tree_add_uint(ptr noundef %2, i32 noundef %52, ptr noundef %0, i32 noundef %3, i32 noundef %8, i32 noundef %51)
  %54 = add i32 %51, -176
  %or.cond11 = icmp ult i32 %54, -48
  br i1 %or.cond11, label %55, label %check_clip.exit.thread74

55:                                               ; preds = %50
  %56 = tail call ptr @expert_add_info(ptr noundef %1, ptr noundef %53, ptr noundef nonnull @ei_at_type)
  br label %check_clip.exit.thread74

57:                                               ; preds = %.thread83
  %58 = load i32, ptr @hf_at_subaddress, align 4
  %59 = tail call ptr @proto_tree_add_item(ptr noundef %2, i32 noundef %58, ptr noundef %0, i32 noundef %3, i32 noundef %8, i32 noundef 0)
  br label %check_clip.exit.thread74

60:                                               ; preds = %.thread83
  %61 = tail call fastcc i32 @get_uint_parameter(ptr noundef %6, i32 noundef %8)
  %62 = load i32, ptr @hf_at_subaddress_type, align 4
  %63 = tail call ptr @proto_tree_add_uint(ptr noundef %2, i32 noundef %62, ptr noundef %0, i32 noundef %3, i32 noundef %8, i32 noundef %61)
  br label %check_clip.exit.thread74

64:                                               ; preds = %.thread83
  %65 = load i32, ptr @hf_at_alpha, align 4
  %66 = tail call ptr @proto_tree_add_item(ptr noundef %2, i32 noundef %65, ptr noundef %0, i32 noundef %3, i32 noundef %8, i32 noundef 0)
  br label %check_clip.exit.thread74

67:                                               ; preds = %.thread83
  %68 = tail call fastcc i32 @get_uint_parameter(ptr noundef %6, i32 noundef %8)
  %69 = load i32, ptr @hf_at_cli_validity, align 4
  %70 = tail call ptr @proto_tree_add_uint(ptr noundef %2, i32 noundef %69, ptr noundef %0, i32 noundef %3, i32 noundef %8, i32 noundef %68)
  br label %check_clip.exit.thread74

check_clip.exit.thread74:                         ; preds = %12, %34, %21, %20, %55, %50, %67, %64, %60, %57, %47, %.thread83, %16, %check_clip.exit
  %.0 = phi i1 [ false, %check_clip.exit ], [ false, %16 ], [ true, %.thread83 ], [ true, %47 ], [ true, %57 ], [ true, %60 ], [ true, %64 ], [ true, %67 ], [ true, %50 ], [ true, %55 ], [ true, %20 ], [ true, %21 ], [ true, %34 ], [ false, %12 ]
  ret i1 %.0
}